target datalayout = "e-m:e-p270:32:32-p271:32:32-p272:64:64-i64:64-i128:128-f80:128-n8:16:32:64-S128"
target triple = "x86_64-pc-linux-gnu"

@_ZN11OptoRuntime18_new_instance_JavaE = hidden global ptr null, align 8
@_ZN11OptoRuntime15_new_array_JavaE = hidden global ptr null, align 8
@_ZN11OptoRuntime22_new_array_nozero_JavaE = hidden global ptr null, align 8
@_ZN11OptoRuntime21_multianewarray2_JavaE = hidden global ptr null, align 8
@_ZN11OptoRuntime21_multianewarray3_JavaE = hidden global ptr null, align 8
@_ZN11OptoRuntime21_multianewarray4_JavaE = hidden global ptr null, align 8
@_ZN11OptoRuntime21_multianewarray5_JavaE = hidden global ptr null, align 8
@_ZN11OptoRuntime21_multianewarrayN_JavaE = hidden global ptr null, align 8
@_ZN11OptoRuntime30_complete_monitor_locking_JavaE = hidden global ptr null, align 8
@_ZN11OptoRuntime20_monitor_notify_JavaE = hidden global ptr null, align 8
@_ZN11OptoRuntime23_monitor_notifyAll_JavaE = hidden global ptr null, align 8
@_ZN11OptoRuntime13_rethrow_JavaE = hidden global ptr null, align 8
@_ZN11OptoRuntime20_slow_arraycopy_JavaE = hidden global ptr null, align 8
@_ZN11OptoRuntime24_register_finalizer_JavaE = hidden global ptr null, align 8
@_ZN11OptoRuntime27_notify_jvmti_vthread_startE = hidden global ptr null, align 8
@_ZN11OptoRuntime25_notify_jvmti_vthread_endE = hidden global ptr null, align 8
@_ZN11OptoRuntime27_notify_jvmti_vthread_mountE = hidden global ptr null, align 8
@_ZN11OptoRuntime29_notify_jvmti_vthread_unmountE = hidden global ptr null, align 8
@.str = private unnamed_addr constant [19 x i8] c"_new_instance_Java\00", align 1
@.str.4 = private unnamed_addr constant [16 x i8] c"_new_array_Java\00", align 1
@.str.5 = private unnamed_addr constant [23 x i8] c"_new_array_nozero_Java\00", align 1
@.str.6 = private unnamed_addr constant [22 x i8] c"_multianewarray2_Java\00", align 1
@.str.7 = private unnamed_addr constant [22 x i8] c"_multianewarray3_Java\00", align 1
@.str.8 = private unnamed_addr constant [22 x i8] c"_multianewarray4_Java\00", align 1
@.str.9 = private unnamed_addr constant [22 x i8] c"_multianewarray5_Java\00", align 1
@.str.10 = private unnamed_addr constant [22 x i8] c"_multianewarrayN_Java\00", align 1
@.str.11 = private unnamed_addr constant [28 x i8] c"_notify_jvmti_vthread_start\00", align 1
@.str.12 = private unnamed_addr constant [26 x i8] c"_notify_jvmti_vthread_end\00", align 1
@.str.13 = private unnamed_addr constant [28 x i8] c"_notify_jvmti_vthread_mount\00", align 1
@.str.14 = private unnamed_addr constant [30 x i8] c"_notify_jvmti_vthread_unmount\00", align 1
@.str.15 = private unnamed_addr constant [31 x i8] c"_complete_monitor_locking_Java\00", align 1
@.str.16 = private unnamed_addr constant [21 x i8] c"_monitor_notify_Java\00", align 1
@.str.17 = private unnamed_addr constant [24 x i8] c"_monitor_notifyAll_Java\00", align 1
@.str.18 = private unnamed_addr constant [14 x i8] c"_rethrow_Java\00", align 1
@.str.19 = private unnamed_addr constant [21 x i8] c"_slow_arraycopy_Java\00", align 1
@.str.20 = private unnamed_addr constant [25 x i8] c"_register_finalizer_Java\00", align 1

; Function Attrs: mustprogress nounwind uwtable
define hidden noundef zeroext i1 @_ZN11OptoRuntime8generateEP5ciEnv(ptr noundef %0) #1 align 2 {
  %2 = alloca i1, align 1
  %3 = alloca ptr, align 8
  store ptr %0, ptr %3, align 8
  call void @_ZN11OptoRuntime23generate_exception_blobEv()
  %4 = load ptr, ptr %3, align 8
  %5 = call noundef ptr @_ZN11OptoRuntime13generate_stubEP5ciEnvPFPK8TypeFuncvEPhPKcibb(ptr noundef %4, ptr noundef @_ZN11OptoRuntime17new_instance_TypeEv, ptr noundef @_ZN11OptoRuntime14new_instance_CEP5KlassP10JavaThread, ptr noundef @.str, i32 noundef 0, i1 noundef zeroext true, i1 noundef zeroext false)
  store ptr %5, ptr @_ZN11OptoRuntime18_new_instance_JavaE, align 8
  %6 = load ptr, ptr @_ZN11OptoRuntime18_new_instance_JavaE, align 8
  %7 = icmp eq ptr %6, null
  br i1 %7, label %8, label %9

8:                                                ; preds = %1
  store i1 false, ptr %2, align 1
  br label %112

9:                                                ; preds = %1
  %10 = load ptr, ptr %3, align 8
  %11 = call noundef ptr @_ZN11OptoRuntime13generate_stubEP5ciEnvPFPK8TypeFuncvEPhPKcibb(ptr noundef %10, ptr noundef @_ZN11OptoRuntime14new_array_TypeEv, ptr noundef @_ZN11OptoRuntime11new_array_CEP5KlassiP10JavaThread, ptr noundef @.str.4, i32 noundef 0, i1 noundef zeroext true, i1 noundef zeroext false)
  store ptr %11, ptr @_ZN11OptoRuntime15_new_array_JavaE, align 8
  %12 = load ptr, ptr @_ZN11OptoRuntime15_new_array_JavaE, align 8
  %13 = icmp eq ptr %12, null
  br i1 %13, label %14, label %15

14:                                               ; preds = %9
  store i1 false, ptr %2, align 1
  br label %112

15:                                               ; preds = %9
  %16 = load ptr, ptr %3, align 8
  %17 = call noundef ptr @_ZN11OptoRuntime13generate_stubEP5ciEnvPFPK8TypeFuncvEPhPKcibb(ptr noundef %16, ptr noundef @_ZN11OptoRuntime14new_array_TypeEv, ptr noundef @_ZN11OptoRuntime18new_array_nozero_CEP5KlassiP10JavaThread, ptr noundef @.str.5, i32 noundef 0, i1 noundef zeroext true, i1 noundef zeroext false)
  store ptr %17, ptr @_ZN11OptoRuntime22_new_array_nozero_JavaE, align 8
  %18 = load ptr, ptr @_ZN11OptoRuntime22_new_array_nozero_JavaE, align 8
  %19 = icmp eq ptr %18, null
  br i1 %19, label %20, label %21

20:                                               ; preds = %15
  store i1 false, ptr %2, align 1
  br label %112

21:                                               ; preds = %15
  %22 = load ptr, ptr %3, align 8
  %23 = call noundef ptr @_ZN11OptoRuntime13generate_stubEP5ciEnvPFPK8TypeFuncvEPhPKcibb(ptr noundef %22, ptr noundef @_ZN11OptoRuntime20multianewarray2_TypeEv, ptr noundef @_ZN11OptoRuntime17multianewarray2_CEP5KlassiiP10JavaThread, ptr noundef @.str.6, i32 noundef 0, i1 noundef zeroext true, i1 noundef zeroext false)
  store ptr %23, ptr @_ZN11OptoRuntime21_multianewarray2_JavaE, align 8
  %24 = load ptr, ptr @_ZN11OptoRuntime21_multianewarray2_JavaE, align 8
  %25 = icmp eq ptr %24, null
  br i1 %25, label %26, label %27

26:                                               ; preds = %21
  store i1 false, ptr %2, align 1
  br label %112

27:                                               ; preds = %21
  %28 = load ptr, ptr %3, align 8
  %29 = call noundef ptr @_ZN11OptoRuntime13generate_stubEP5ciEnvPFPK8TypeFuncvEPhPKcibb(ptr noundef %28, ptr noundef @_ZN11OptoRuntime20multianewarray3_TypeEv, ptr noundef @_ZN11OptoRuntime17multianewarray3_CEP5KlassiiiP10JavaThread, ptr noundef @.str.7, i32 noundef 0, i1 noundef zeroext true, i1 noundef zeroext false)
  store ptr %29, ptr @_ZN11OptoRuntime21_multianewarray3_JavaE, align 8
  %30 = load ptr, ptr @_ZN11OptoRuntime21_multianewarray3_JavaE, align 8
  %31 = icmp eq ptr %30, null
  br i1 %31, label %32, label %33

32:                                               ; preds = %27
  store i1 false, ptr %2, align 1
  br label %112

33:                                               ; preds = %27
  %34 = load ptr, ptr %3, align 8
  %35 = call noundef ptr @_ZN11OptoRuntime13generate_stubEP5ciEnvPFPK8TypeFuncvEPhPKcibb(ptr noundef %34, ptr noundef @_ZN11OptoRuntime20multianewarray4_TypeEv, ptr noundef @_ZN11OptoRuntime17multianewarray4_CEP5KlassiiiiP10JavaThread, ptr noundef @.str.8, i32 noundef 0, i1 noundef zeroext true, i1 noundef zeroext false)
  store ptr %35, ptr @_ZN11OptoRuntime21_multianewarray4_JavaE, align 8
  %36 = load ptr, ptr @_ZN11OptoRuntime21_multianewarray4_JavaE, align 8
  %37 = icmp eq ptr %36, null
  br i1 %37, label %38, label %39

38:                                               ; preds = %33
  store i1 false, ptr %2, align 1
  br label %112

39:                                               ; preds = %33
  %40 = load ptr, ptr %3, align 8
  %41 = call noundef ptr @_ZN11OptoRuntime13generate_stubEP5ciEnvPFPK8TypeFuncvEPhPKcibb(ptr noundef %40, ptr noundef @_ZN11OptoRuntime20multianewarray5_TypeEv, ptr noundef @_ZN11OptoRuntime17multianewarray5_CEP5KlassiiiiiP10JavaThread, ptr noundef @.str.9, i32 noundef 0, i1 noundef zeroext true, i1 noundef zeroext false)
  store ptr %41, ptr @_ZN11OptoRuntime21_multianewarray5_JavaE, align 8
  %42 = load ptr, ptr @_ZN11OptoRuntime21_multianewarray5_JavaE, align 8
  %43 = icmp eq ptr %42, null
  br i1 %43, label %44, label %45

44:                                               ; preds = %39
  store i1 false, ptr %2, align 1
  br label %112

45:                                               ; preds = %39
  %46 = load ptr, ptr %3, align 8
  %47 = call noundef ptr @_ZN11OptoRuntime13generate_stubEP5ciEnvPFPK8TypeFuncvEPhPKcibb(ptr noundef %46, ptr noundef @_ZN11OptoRuntime20multianewarrayN_TypeEv, ptr noundef @_ZN11OptoRuntime17multianewarrayN_CEP5KlassP12arrayOopDescP10JavaThread, ptr noundef @.str.10, i32 noundef 0, i1 noundef zeroext true, i1 noundef zeroext false)
  store ptr %47, ptr @_ZN11OptoRuntime21_multianewarrayN_JavaE, align 8
  %48 = load ptr, ptr @_ZN11OptoRuntime21_multianewarrayN_JavaE, align 8
  %49 = icmp eq ptr %48, null
  br i1 %49, label %50, label %51

50:                                               ; preds = %45
  store i1 false, ptr %2, align 1
  br label %112

51:                                               ; preds = %45
  %52 = load ptr, ptr %3, align 8
  %53 = call noundef ptr @_ZN11OptoRuntime13generate_stubEP5ciEnvPFPK8TypeFuncvEPhPKcibb(ptr noundef %52, ptr noundef @_ZN11OptoRuntime25notify_jvmti_vthread_TypeEv, ptr noundef @_ZN13SharedRuntime26notify_jvmti_vthread_startEP7oopDeschP10JavaThread, ptr noundef @.str.11, i32 noundef 0, i1 noundef zeroext true, i1 noundef zeroext false)
  store ptr %53, ptr @_ZN11OptoRuntime27_notify_jvmti_vthread_startE, align 8
  %54 = load ptr, ptr @_ZN11OptoRuntime27_notify_jvmti_vthread_startE, align 8
  %55 = icmp eq ptr %54, null
  br i1 %55, label %56, label %57

56:                                               ; preds = %51
  store i1 false, ptr %2, align 1
  br label %112

57:                                               ; preds = %51
  %58 = load ptr, ptr %3, align 8
  %59 = call noundef ptr @_ZN11OptoRuntime13generate_stubEP5ciEnvPFPK8TypeFuncvEPhPKcibb(ptr noundef %58, ptr noundef @_ZN11OptoRuntime25notify_jvmti_vthread_TypeEv, ptr noundef @_ZN13SharedRuntime24notify_jvmti_vthread_endEP7oopDeschP10JavaThread, ptr noundef @.str.12, i32 noundef 0, i1 noundef zeroext true, i1 noundef zeroext false)
  store ptr %59, ptr @_ZN11OptoRuntime25_notify_jvmti_vthread_endE, align 8
  %60 = load ptr, ptr @_ZN11OptoRuntime25_notify_jvmti_vthread_endE, align 8
  %61 = icmp eq ptr %60, null
  br i1 %61, label %62, label %63

62:                                               ; preds = %57
  store i1 false, ptr %2, align 1
  br label %112

63:                                               ; preds = %57
  %64 = load ptr, ptr %3, align 8
  %65 = call noundef ptr @_ZN11OptoRuntime13generate_stubEP5ciEnvPFPK8TypeFuncvEPhPKcibb(ptr noundef %64, ptr noundef @_ZN11OptoRuntime25notify_jvmti_vthread_TypeEv, ptr noundef @_ZN13SharedRuntime26notify_jvmti_vthread_mountEP7oopDeschP10JavaThread, ptr noundef @.str.13, i32 noundef 0, i1 noundef zeroext true, i1 noundef zeroext false)
  store ptr %65, ptr @_ZN11OptoRuntime27_notify_jvmti_vthread_mountE, align 8
  %66 = load ptr, ptr @_ZN11OptoRuntime27_notify_jvmti_vthread_mountE, align 8
  %67 = icmp eq ptr %66, null
  br i1 %67, label %68, label %69

68:                                               ; preds = %63
  store i1 false, ptr %2, align 1
  br label %112

69:                                               ; preds = %63
  %70 = load ptr, ptr %3, align 8
  %71 = call noundef ptr @_ZN11OptoRuntime13generate_stubEP5ciEnvPFPK8TypeFuncvEPhPKcibb(ptr noundef %70, ptr noundef @_ZN11OptoRuntime25notify_jvmti_vthread_TypeEv, ptr noundef @_ZN13SharedRuntime28notify_jvmti_vthread_unmountEP7oopDeschP10JavaThread, ptr noundef @.str.14, i32 noundef 0, i1 noundef zeroext true, i1 noundef zeroext false)
  store ptr %71, ptr @_ZN11OptoRuntime29_notify_jvmti_vthread_unmountE, align 8
  %72 = load ptr, ptr @_ZN11OptoRuntime29_notify_jvmti_vthread_unmountE, align 8
  %73 = icmp eq ptr %72, null
  br i1 %73, label %74, label %75

74:                                               ; preds = %69
  store i1 false, ptr %2, align 1
  br label %112

75:                                               ; preds = %69
  %76 = load ptr, ptr %3, align 8
  %77 = call noundef ptr @_ZN11OptoRuntime13generate_stubEP5ciEnvPFPK8TypeFuncvEPhPKcibb(ptr noundef %76, ptr noundef @_ZN11OptoRuntime27complete_monitor_enter_TypeEv, ptr noundef @_ZN13SharedRuntime26complete_monitor_locking_CEP7oopDescP9BasicLockP10JavaThread, ptr noundef @.str.15, i32 noundef 0, i1 noundef zeroext false, i1 noundef zeroext false)
  store ptr %77, ptr @_ZN11OptoRuntime30_complete_monitor_locking_JavaE, align 8
  %78 = load ptr, ptr @_ZN11OptoRuntime30_complete_monitor_locking_JavaE, align 8
  %79 = icmp eq ptr %78, null
  br i1 %79, label %80, label %81

80:                                               ; preds = %75
  store i1 false, ptr %2, align 1
  br label %112

81:                                               ; preds = %75
  %82 = load ptr, ptr %3, align 8
  %83 = call noundef ptr @_ZN11OptoRuntime13generate_stubEP5ciEnvPFPK8TypeFuncvEPhPKcibb(ptr noundef %82, ptr noundef @_ZN11OptoRuntime19monitor_notify_TypeEv, ptr noundef @_ZN11OptoRuntime16monitor_notify_CEP7oopDescP10JavaThread, ptr noundef @.str.16, i32 noundef 0, i1 noundef zeroext false, i1 noundef zeroext false)
  store ptr %83, ptr @_ZN11OptoRuntime20_monitor_notify_JavaE, align 8
  %84 = load ptr, ptr @_ZN11OptoRuntime20_monitor_notify_JavaE, align 8
  %85 = icmp eq ptr %84, null
  br i1 %85, label %86, label %87

86:                                               ; preds = %81
  store i1 false, ptr %2, align 1
  br label %112

87:                                               ; preds = %81
  %88 = load ptr, ptr %3, align 8
  %89 = call noundef ptr @_ZN11OptoRuntime13generate_stubEP5ciEnvPFPK8TypeFuncvEPhPKcibb(ptr noundef %88, ptr noundef @_ZN11OptoRuntime19monitor_notify_TypeEv, ptr noundef @_ZN11OptoRuntime19monitor_notifyAll_CEP7oopDescP10JavaThread, ptr noundef @.str.17, i32 noundef 0, i1 noundef zeroext false, i1 noundef zeroext false)
  store ptr %89, ptr @_ZN11OptoRuntime23_monitor_notifyAll_JavaE, align 8
  %90 = load ptr, ptr @_ZN11OptoRuntime23_monitor_notifyAll_JavaE, align 8
  %91 = icmp eq ptr %90, null
  br i1 %91, label %92, label %93

92:                                               ; preds = %87
  store i1 false, ptr %2, align 1
  br label %112

93:                                               ; preds = %87
  %94 = load ptr, ptr %3, align 8
  %95 = call noundef ptr @_ZN11OptoRuntime13generate_stubEP5ciEnvPFPK8TypeFuncvEPhPKcibb(ptr noundef %94, ptr noundef @_ZN11OptoRuntime12rethrow_TypeEv, ptr noundef @_ZN11OptoRuntime9rethrow_CEP7oopDescP10JavaThreadPh, ptr noundef @.str.18, i32 noundef 2, i1 noundef zeroext true, i1 noundef zeroext true)
  store ptr %95, ptr @_ZN11OptoRuntime13_rethrow_JavaE, align 8
  %96 = load ptr, ptr @_ZN11OptoRuntime13_rethrow_JavaE, align 8
  %97 = icmp eq ptr %96, null
  br i1 %97, label %98, label %99

98:                                               ; preds = %93
  store i1 false, ptr %2, align 1
  br label %112

99:                                               ; preds = %93
  %100 = load ptr, ptr %3, align 8
  %101 = call noundef ptr @_ZN11OptoRuntime13generate_stubEP5ciEnvPFPK8TypeFuncvEPhPKcibb(ptr noundef %100, ptr noundef @_ZN11OptoRuntime19slow_arraycopy_TypeEv, ptr noundef @_ZN13SharedRuntime16slow_arraycopy_CEP7oopDesciS1_iiP10JavaThread, ptr noundef @.str.19, i32 noundef 0, i1 noundef zeroext false, i1 noundef zeroext false)
  store ptr %101, ptr @_ZN11OptoRuntime20_slow_arraycopy_JavaE, align 8
  %102 = load ptr, ptr @_ZN11OptoRuntime20_slow_arraycopy_JavaE, align 8
  %103 = icmp eq ptr %102, null
  br i1 %103, label %104, label %105

104:                                              ; preds = %99
  store i1 false, ptr %2, align 1
  br label %112

105:                                              ; preds = %99
  %106 = load ptr, ptr %3, align 8
  %107 = call noundef ptr @_ZN11OptoRuntime13generate_stubEP5ciEnvPFPK8TypeFuncvEPhPKcibb(ptr noundef %106, ptr noundef @_ZN11OptoRuntime23register_finalizer_TypeEv, ptr noundef @_ZN11OptoRuntime18register_finalizerEP7oopDescP10JavaThread, ptr noundef @.str.20, i32 noundef 0, i1 noundef zeroext false, i1 noundef zeroext false)
  store ptr %107, ptr @_ZN11OptoRuntime24_register_finalizer_JavaE, align 8
  %108 = load ptr, ptr @_ZN11OptoRuntime24_register_finalizer_JavaE, align 8
  %109 = icmp eq ptr %108, null
  br i1 %109, label %110, label %111

110:                                              ; preds = %105
  store i1 false, ptr %2, align 1
  br label %112

111:                                              ; preds = %105
  store i1 true, ptr %2, align 1
  br label %112

112:                                              ; preds = %111, %110, %104, %98, %92, %86, %80, %74, %68, %62, %56, %50, %44, %38, %32, %26, %20, %14, %8
  %113 = load i1, ptr %2, align 1
  ret i1 %113
}