; Function Attrs: mustprogress nounwind uwtable
define hidden noundef zeroext i1 @_ZN11OptoRuntime8generateEP5ciEnv(ptr noundef %0) local_unnamed_addr #0 align 2 {
  tail call void @_ZN11OptoRuntime23generate_exception_blobEv() #12
  %2 = tail call noundef ptr @_ZN11OptoRuntime13generate_stubEP5ciEnvPFPK8TypeFuncvEPhPKcibb(ptr noundef %0, ptr noundef nonnull @_ZN11OptoRuntime17new_instance_TypeEv, ptr noundef nonnull @_ZN11OptoRuntime14new_instance_CEP5KlassP10JavaThread, ptr noundef nonnull @.str, i32 noundef 0, i1 noundef zeroext true, i1 noundef zeroext false)
  store ptr %2, ptr @_ZN11OptoRuntime18_new_instance_JavaE, align 8
  %3 = icmp eq ptr %2, null
  br i1 %3, label %55, label %4

4:                                                ; preds = %1
  %5 = tail call noundef ptr @_ZN11OptoRuntime13generate_stubEP5ciEnvPFPK8TypeFuncvEPhPKcibb(ptr noundef %0, ptr noundef nonnull @_ZN11OptoRuntime14new_array_TypeEv, ptr noundef nonnull @_ZN11OptoRuntime11new_array_CEP5KlassiP10JavaThread, ptr noundef nonnull @.str.4, i32 noundef 0, i1 noundef zeroext true, i1 noundef zeroext false)
  store ptr %5, ptr @_ZN11OptoRuntime15_new_array_JavaE, align 8
  %6 = icmp eq ptr %5, null
  br i1 %6, label %55, label %7

7:                                                ; preds = %4
  %8 = tail call noundef ptr @_ZN11OptoRuntime13generate_stubEP5ciEnvPFPK8TypeFuncvEPhPKcibb(ptr noundef %0, ptr noundef nonnull @_ZN11OptoRuntime14new_array_TypeEv, ptr noundef nonnull @_ZN11OptoRuntime18new_array_nozero_CEP5KlassiP10JavaThread, ptr noundef nonnull @.str.5, i32 noundef 0, i1 noundef zeroext true, i1 noundef zeroext false)
  store ptr %8, ptr @_ZN11OptoRuntime22_new_array_nozero_JavaE, align 8
  %9 = icmp eq ptr %8, null
  br i1 %9, label %55, label %10

10:                                               ; preds = %7
  %11 = tail call noundef ptr @_ZN11OptoRuntime13generate_stubEP5ciEnvPFPK8TypeFuncvEPhPKcibb(ptr noundef %0, ptr noundef nonnull @_ZN11OptoRuntime20multianewarray2_TypeEv, ptr noundef nonnull @_ZN11OptoRuntime17multianewarray2_CEP5KlassiiP10JavaThread, ptr noundef nonnull @.str.6, i32 noundef 0, i1 noundef zeroext true, i1 noundef zeroext false)
  store ptr %11, ptr @_ZN11OptoRuntime21_multianewarray2_JavaE, align 8
  %12 = icmp eq ptr %11, null
  br i1 %12, label %55, label %13

13:                                               ; preds = %10
  %14 = tail call noundef ptr @_ZN11OptoRuntime13generate_stubEP5ciEnvPFPK8TypeFuncvEPhPKcibb(ptr noundef %0, ptr noundef nonnull @_ZN11OptoRuntime20multianewarray3_TypeEv, ptr noundef nonnull @_ZN11OptoRuntime17multianewarray3_CEP5KlassiiiP10JavaThread, ptr noundef nonnull @.str.7, i32 noundef 0, i1 noundef zeroext true, i1 noundef zeroext false)
  store ptr %14, ptr @_ZN11OptoRuntime21_multianewarray3_JavaE, align 8
  %15 = icmp eq ptr %14, null
  br i1 %15, label %55, label %16

16:                                               ; preds = %13
  %17 = tail call noundef ptr @_ZN11OptoRuntime13generate_stubEP5ciEnvPFPK8TypeFuncvEPhPKcibb(ptr noundef %0, ptr noundef nonnull @_ZN11OptoRuntime20multianewarray4_TypeEv, ptr noundef nonnull @_ZN11OptoRuntime17multianewarray4_CEP5KlassiiiiP10JavaThread, ptr noundef nonnull @.str.8, i32 noundef 0, i1 noundef zeroext true, i1 noundef zeroext false)
  store ptr %17, ptr @_ZN11OptoRuntime21_multianewarray4_JavaE, align 8
  %18 = icmp eq ptr %17, null
  br i1 %18, label %55, label %19

19:                                               ; preds = %16
  %20 = tail call noundef ptr @_ZN11OptoRuntime13generate_stubEP5ciEnvPFPK8TypeFuncvEPhPKcibb(ptr noundef %0, ptr noundef nonnull @_ZN11OptoRuntime20multianewarray5_TypeEv, ptr noundef nonnull @_ZN11OptoRuntime17multianewarray5_CEP5KlassiiiiiP10JavaThread, ptr noundef nonnull @.str.9, i32 noundef 0, i1 noundef zeroext true, i1 noundef zeroext false)
  store ptr %20, ptr @_ZN11OptoRuntime21_multianewarray5_JavaE, align 8
  %21 = icmp eq ptr %20, null
  br i1 %21, label %55, label %22

22:                                               ; preds = %19
  %23 = tail call noundef ptr @_ZN11OptoRuntime13generate_stubEP5ciEnvPFPK8TypeFuncvEPhPKcibb(ptr noundef %0, ptr noundef nonnull @_ZN11OptoRuntime20multianewarrayN_TypeEv, ptr noundef nonnull @_ZN11OptoRuntime17multianewarrayN_CEP5KlassP12arrayOopDescP10JavaThread, ptr noundef nonnull @.str.10, i32 noundef 0, i1 noundef zeroext true, i1 noundef zeroext false)
  store ptr %23, ptr @_ZN11OptoRuntime21_multianewarrayN_JavaE, align 8
  %24 = icmp eq ptr %23, null
  br i1 %24, label %55, label %25

25:                                               ; preds = %22
  %26 = tail call noundef ptr @_ZN11OptoRuntime13generate_stubEP5ciEnvPFPK8TypeFuncvEPhPKcibb(ptr noundef %0, ptr noundef nonnull @_ZN11OptoRuntime25notify_jvmti_vthread_TypeEv, ptr noundef nonnull @_ZN13SharedRuntime26notify_jvmti_vthread_startEP7oopDeschP10JavaThread, ptr noundef nonnull @.str.11, i32 noundef 0, i1 noundef zeroext true, i1 noundef zeroext false)
  store ptr %26, ptr @_ZN11OptoRuntime27_notify_jvmti_vthread_startE, align 8
  %27 = icmp eq ptr %26, null
  br i1 %27, label %55, label %28

28:                                               ; preds = %25
  %29 = tail call noundef ptr @_ZN11OptoRuntime13generate_stubEP5ciEnvPFPK8TypeFuncvEPhPKcibb(ptr noundef %0, ptr noundef nonnull @_ZN11OptoRuntime25notify_jvmti_vthread_TypeEv, ptr noundef nonnull @_ZN13SharedRuntime24notify_jvmti_vthread_endEP7oopDeschP10JavaThread, ptr noundef nonnull @.str.12, i32 noundef 0, i1 noundef zeroext true, i1 noundef zeroext false)
  store ptr %29, ptr @_ZN11OptoRuntime25_notify_jvmti_vthread_endE, align 8
  %30 = icmp eq ptr %29, null
  br i1 %30, label %55, label %31

31:                                               ; preds = %28
  %32 = tail call noundef ptr @_ZN11OptoRuntime13generate_stubEP5ciEnvPFPK8TypeFuncvEPhPKcibb(ptr noundef %0, ptr noundef nonnull @_ZN11OptoRuntime25notify_jvmti_vthread_TypeEv, ptr noundef nonnull @_ZN13SharedRuntime26notify_jvmti_vthread_mountEP7oopDeschP10JavaThread, ptr noundef nonnull @.str.13, i32 noundef 0, i1 noundef zeroext true, i1 noundef zeroext false)
  store ptr %32, ptr @_ZN11OptoRuntime27_notify_jvmti_vthread_mountE, align 8
  %33 = icmp eq ptr %32, null
  br i1 %33, label %55, label %34

34:                                               ; preds = %31
  %35 = tail call noundef ptr @_ZN11OptoRuntime13generate_stubEP5ciEnvPFPK8TypeFuncvEPhPKcibb(ptr noundef %0, ptr noundef nonnull @_ZN11OptoRuntime25notify_jvmti_vthread_TypeEv, ptr noundef nonnull @_ZN13SharedRuntime28notify_jvmti_vthread_unmountEP7oopDeschP10JavaThread, ptr noundef nonnull @.str.14, i32 noundef 0, i1 noundef zeroext true, i1 noundef zeroext false)
  store ptr %35, ptr @_ZN11OptoRuntime29_notify_jvmti_vthread_unmountE, align 8
  %36 = icmp eq ptr %35, null
  br i1 %36, label %55, label %37

37:                                               ; preds = %34
  %38 = tail call noundef ptr @_ZN11OptoRuntime13generate_stubEP5ciEnvPFPK8TypeFuncvEPhPKcibb(ptr noundef %0, ptr noundef nonnull @_ZN11OptoRuntime27complete_monitor_enter_TypeEv, ptr noundef nonnull @_ZN13SharedRuntime26complete_monitor_locking_CEP7oopDescP9BasicLockP10JavaThread, ptr noundef nonnull @.str.15, i32 noundef 0, i1 noundef zeroext false, i1 noundef zeroext false)
  store ptr %38, ptr @_ZN11OptoRuntime30_complete_monitor_locking_JavaE, align 8
  %39 = icmp eq ptr %38, null
  br i1 %39, label %55, label %40

40:                                               ; preds = %37
  %41 = tail call noundef ptr @_ZN11OptoRuntime13generate_stubEP5ciEnvPFPK8TypeFuncvEPhPKcibb(ptr noundef %0, ptr noundef nonnull @_ZN11OptoRuntime19monitor_notify_TypeEv, ptr noundef nonnull @_ZN11OptoRuntime16monitor_notify_CEP7oopDescP10JavaThread, ptr noundef nonnull @.str.16, i32 noundef 0, i1 noundef zeroext false, i1 noundef zeroext false)
  store ptr %41, ptr @_ZN11OptoRuntime20_monitor_notify_JavaE, align 8
  %42 = icmp eq ptr %41, null
  br i1 %42, label %55, label %43

43:                                               ; preds = %40
  %44 = tail call noundef ptr @_ZN11OptoRuntime13generate_stubEP5ciEnvPFPK8TypeFuncvEPhPKcibb(ptr noundef %0, ptr noundef nonnull @_ZN11OptoRuntime19monitor_notify_TypeEv, ptr noundef nonnull @_ZN11OptoRuntime19monitor_notifyAll_CEP7oopDescP10JavaThread, ptr noundef nonnull @.str.17, i32 noundef 0, i1 noundef zeroext false, i1 noundef zeroext false)
  store ptr %44, ptr @_ZN11OptoRuntime23_monitor_notifyAll_JavaE, align 8
  %45 = icmp eq ptr %44, null
  br i1 %45, label %55, label %46

46:                                               ; preds = %43
  %47 = tail call noundef ptr @_ZN11OptoRuntime13generate_stubEP5ciEnvPFPK8TypeFuncvEPhPKcibb(ptr noundef %0, ptr noundef nonnull @_ZN11OptoRuntime12rethrow_TypeEv, ptr noundef nonnull @_ZN11OptoRuntime9rethrow_CEP7oopDescP10JavaThreadPh, ptr noundef nonnull @.str.18, i32 noundef 2, i1 noundef zeroext true, i1 noundef zeroext true)
  store ptr %47, ptr @_ZN11OptoRuntime13_rethrow_JavaE, align 8
  %48 = icmp eq ptr %47, null
  br i1 %48, label %55, label %49

49:                                               ; preds = %46
  %50 = tail call noundef ptr @_ZN11OptoRuntime13generate_stubEP5ciEnvPFPK8TypeFuncvEPhPKcibb(ptr noundef %0, ptr noundef nonnull @_ZN11OptoRuntime19slow_arraycopy_TypeEv, ptr noundef nonnull @_ZN13SharedRuntime16slow_arraycopy_CEP7oopDesciS1_iiP10JavaThread, ptr noundef nonnull @.str.19, i32 noundef 0, i1 noundef zeroext false, i1 noundef zeroext false)
  store ptr %50, ptr @_ZN11OptoRuntime20_slow_arraycopy_JavaE, align 8
  %51 = icmp eq ptr %50, null
  br i1 %51, label %55, label %52

52:                                               ; preds = %49
  %53 = tail call noundef ptr @_ZN11OptoRuntime13generate_stubEP5ciEnvPFPK8TypeFuncvEPhPKcibb(ptr noundef %0, ptr noundef nonnull @_ZN11OptoRuntime23register_finalizer_TypeEv, ptr noundef nonnull @_ZN11OptoRuntime18register_finalizerEP7oopDescP10JavaThread, ptr noundef nonnull @.str.20, i32 noundef 0, i1 noundef zeroext false, i1 noundef zeroext false)
  store ptr %53, ptr @_ZN11OptoRuntime24_register_finalizer_JavaE, align 8
  %54 = icmp ne ptr %53, null
  br label %55

55:                                               ; preds = %52, %49, %46, %43, %40, %37, %34, %31, %28, %25, %22, %19, %16, %13, %10, %7, %4, %1
  %.0 = phi i1 [ false, %1 ], [ false, %4 ], [ false, %7 ], [ false, %10 ], [ false, %13 ], [ false, %16 ], [ false, %19 ], [ false, %22 ], [ false, %25 ], [ false, %28 ], [ false, %31 ], [ false, %34 ], [ false, %37 ], [ false, %40 ], [ false, %43 ], [ false, %46 ], [ false, %49 ], [ %54, %52 ]
  ret i1 %.0
}